
blink.elf:     file format elf32-littlearm
blink.elf
architecture: armv7e-m, flags 0x00000112:
EXEC_P, HAS_SYMS, D_PAGED
start address 0x08000041

Program Header:
    LOAD off    0x00010000 vaddr 0x08000000 paddr 0x08000000 align 2**16
         filesz 0x000001fa memsz 0x000001fa flags r-x
private flags = 0x5000200: [Version5 EABI] [soft-float ABI]

Sections:
Idx Name          Size      VMA       LMA       File off  Algn
  0 .text         000001fa  08000000  08000000  00010000  2**2
                  CONTENTS, ALLOC, LOAD, READONLY, CODE
  1 .data         00000000  20000000  20000000  000101fa  2**0
                  CONTENTS, ALLOC, LOAD, DATA
  2 .bss          00000000  20000000  20000000  00000000  2**0
                  ALLOC
  3 .debug_info   000001ff  00000000  00000000  000101fa  2**0
                  CONTENTS, READONLY, DEBUGGING, OCTETS
  4 .debug_abbrev 00000159  00000000  00000000  000103f9  2**0
                  CONTENTS, READONLY, DEBUGGING, OCTETS
  5 .debug_aranges 00000058  00000000  00000000  00010552  2**0
                  CONTENTS, READONLY, DEBUGGING, OCTETS
  6 .debug_ranges 00000048  00000000  00000000  000105aa  2**0
                  CONTENTS, READONLY, DEBUGGING, OCTETS
  7 .debug_line   00000261  00000000  00000000  000105f2  2**0
                  CONTENTS, READONLY, DEBUGGING, OCTETS
  8 .debug_str    000001fb  00000000  00000000  00010853  2**0
                  CONTENTS, READONLY, DEBUGGING, OCTETS
  9 .comment      00000049  00000000  00000000  00010a4e  2**0
                  CONTENTS, READONLY
 10 .ARM.attributes 0000002e  00000000  00000000  00010a97  2**0
                  CONTENTS, READONLY
 11 .debug_frame  000000b8  00000000  00000000  00010ac8  2**2
                  CONTENTS, READONLY, DEBUGGING, OCTETS
SYMBOL TABLE:
08000000 l    d  .text	00000000 .text
20000000 l    d  .data	00000000 .data
20000000 l    d  .bss	00000000 .bss
00000000 l    d  .debug_info	00000000 .debug_info
00000000 l    d  .debug_abbrev	00000000 .debug_abbrev
00000000 l    d  .debug_aranges	00000000 .debug_aranges
00000000 l    d  .debug_ranges	00000000 .debug_ranges
00000000 l    d  .debug_line	00000000 .debug_line
00000000 l    d  .debug_str	00000000 .debug_str
00000000 l    d  .comment	00000000 .comment
00000000 l    d  .ARM.attributes	00000000 .ARM.attributes
00000000 l    d  .debug_frame	00000000 .debug_frame
00000000 l    df *ABS*	00000000 main.c
080000c4 l     F .text	000000b8 SystemClock_Config
0800017c l     F .text	00000024 GPIO_Config
080001a0 l     F .text	00000034 Toggle_Led
080001d4 l     F .text	00000026 DelayMS
080001fc g       .text	00000000 _etext
20000000 g       .bss	00000000 _sbss
20000000 g       .data	00000000 _sdata
20000000 g       .bss	00000000 _ebss
08000040 g     F .text	0000000c Reset_Handler
08000000 g     O .text	00000040 vector_table
080000a8 g     F .text	00000002 Default_Handler
080000aa g     F .text	00000018 main
0800004c g     F .text	0000005c _init_data
20020000 g       .text	00000000 _estack
20000000 g       .data	00000000 _edata



Disassembly of section .text:

08000000 <vector_table>:
 8000000:	00 00 02 20 41 00 00 08 a9 00 00 08 a9 00 00 08     ... A...........
 8000010:	a9 00 00 08 a9 00 00 08 a9 00 00 08 00 00 00 00     ................
	...
 800002c:	a9 00 00 08 a9 00 00 08 00 00 00 00 a9 00 00 08     ................
 800003c:	a9 00 00 08                                         ....

08000040 <Reset_Handler>:
 8000040:	b508      	push	{r3, lr}
 8000042:	f000 f803 	bl	800004c <_init_data>
 8000046:	f000 f830 	bl	80000aa <main>
 800004a:	e7fe      	b.n	800004a <Reset_Handler+0xa>

0800004c <_init_data>:
 800004c:	b082      	sub	sp, #8
 800004e:	4b11      	ldr	r3, [pc, #68]	; (8000094 <_init_data+0x48>)
 8000050:	9301      	str	r3, [sp, #4]
 8000052:	4b11      	ldr	r3, [pc, #68]	; (8000098 <_init_data+0x4c>)
 8000054:	9300      	str	r3, [sp, #0]
 8000056:	e007      	b.n	8000068 <_init_data+0x1c>
 8000058:	9a01      	ldr	r2, [sp, #4]
 800005a:	1d13      	adds	r3, r2, #4
 800005c:	9301      	str	r3, [sp, #4]
 800005e:	9b00      	ldr	r3, [sp, #0]
 8000060:	1d19      	adds	r1, r3, #4
 8000062:	9100      	str	r1, [sp, #0]
 8000064:	6812      	ldr	r2, [r2, #0]
 8000066:	601a      	str	r2, [r3, #0]
 8000068:	9b00      	ldr	r3, [sp, #0]
 800006a:	4a0c      	ldr	r2, [pc, #48]	; (800009c <_init_data+0x50>)
 800006c:	4293      	cmp	r3, r2
 800006e:	d3f3      	bcc.n	8000058 <_init_data+0xc>
 8000070:	4b0b      	ldr	r3, [pc, #44]	; (80000a0 <_init_data+0x54>)
 8000072:	9300      	str	r3, [sp, #0]
 8000074:	e005      	b.n	8000082 <_init_data+0x36>
 8000076:	9b00      	ldr	r3, [sp, #0]
 8000078:	2200      	movs	r2, #0
 800007a:	601a      	str	r2, [r3, #0]
 800007c:	9b00      	ldr	r3, [sp, #0]
 800007e:	3304      	adds	r3, #4
 8000080:	9300      	str	r3, [sp, #0]
 8000082:	9b00      	ldr	r3, [sp, #0]
 8000084:	4a07      	ldr	r2, [pc, #28]	; (80000a4 <_init_data+0x58>)
 8000086:	4293      	cmp	r3, r2
 8000088:	d3f5      	bcc.n	8000076 <_init_data+0x2a>
 800008a:	bf00      	nop
 800008c:	bf00      	nop
 800008e:	b002      	add	sp, #8
 8000090:	4770      	bx	lr
 8000092:	bf00      	nop
 8000094:	080001fc 	.word	0x080001fc
 8000098:	20000000 	.word	0x20000000
 800009c:	20000000 	.word	0x20000000
 80000a0:	20000000 	.word	0x20000000
 80000a4:	20000000 	.word	0x20000000

080000a8 <Default_Handler>:
 80000a8:	e7fe      	b.n	80000a8 <Default_Handler>

080000aa <main>:
 80000aa:	b508      	push	{r3, lr}
 80000ac:	f000 f80a 	bl	80000c4 <SystemClock_Config>
 80000b0:	f000 f864 	bl	800017c <GPIO_Config>
 80000b4:	f000 f874 	bl	80001a0 <Toggle_Led>
 80000b8:	f44f 707a 	mov.w	r0, #1000	; 0x3e8
 80000bc:	f000 f88a 	bl	80001d4 <DelayMS>
 80000c0:	e7f8      	b.n	80000b4 <main+0xa>
	...

080000c4 <SystemClock_Config>:
 80000c4:	4b28      	ldr	r3, [pc, #160]	; (8000168 <SystemClock_Config+0xa4>)
 80000c6:	681b      	ldr	r3, [r3, #0]
 80000c8:	4a27      	ldr	r2, [pc, #156]	; (8000168 <SystemClock_Config+0xa4>)
 80000ca:	f443 3380 	orr.w	r3, r3, #65536	; 0x10000
 80000ce:	6013      	str	r3, [r2, #0]
 80000d0:	bf00      	nop
 80000d2:	4b25      	ldr	r3, [pc, #148]	; (8000168 <SystemClock_Config+0xa4>)
 80000d4:	681b      	ldr	r3, [r3, #0]
 80000d6:	f403 3300 	and.w	r3, r3, #131072	; 0x20000
 80000da:	2b00      	cmp	r3, #0
 80000dc:	d0f9      	beq.n	80000d2 <SystemClock_Config+0xe>
 80000de:	4b23      	ldr	r3, [pc, #140]	; (800016c <SystemClock_Config+0xa8>)
 80000e0:	681b      	ldr	r3, [r3, #0]
 80000e2:	4a22      	ldr	r2, [pc, #136]	; (800016c <SystemClock_Config+0xa8>)
 80000e4:	f043 5380 	orr.w	r3, r3, #268435456	; 0x10000000
 80000e8:	6013      	str	r3, [r2, #0]
 80000ea:	4b21      	ldr	r3, [pc, #132]	; (8000170 <SystemClock_Config+0xac>)
 80000ec:	681b      	ldr	r3, [r3, #0]
 80000ee:	4a20      	ldr	r2, [pc, #128]	; (8000170 <SystemClock_Config+0xac>)
 80000f0:	f443 4340 	orr.w	r3, r3, #49152	; 0xc000
 80000f4:	6013      	str	r3, [r2, #0]
 80000f6:	4b1f      	ldr	r3, [pc, #124]	; (8000174 <SystemClock_Config+0xb0>)
 80000f8:	681b      	ldr	r3, [r3, #0]
 80000fa:	4a1e      	ldr	r2, [pc, #120]	; (8000174 <SystemClock_Config+0xb0>)
 80000fc:	f443 63e0 	orr.w	r3, r3, #1792	; 0x700
 8000100:	f043 0303 	orr.w	r3, r3, #3
 8000104:	6013      	str	r3, [r2, #0]
 8000106:	4b19      	ldr	r3, [pc, #100]	; (800016c <SystemClock_Config+0xa8>)
 8000108:	681b      	ldr	r3, [r3, #0]
 800010a:	4a18      	ldr	r2, [pc, #96]	; (800016c <SystemClock_Config+0xa8>)
 800010c:	f443 3306 	orr.w	r3, r3, #137216	; 0x21800
 8000110:	f443 7382 	orr.w	r3, r3, #260	; 0x104
 8000114:	6013      	str	r3, [r2, #0]
 8000116:	4b15      	ldr	r3, [pc, #84]	; (800016c <SystemClock_Config+0xa8>)
 8000118:	681b      	ldr	r3, [r3, #0]
 800011a:	4a14      	ldr	r2, [pc, #80]	; (800016c <SystemClock_Config+0xa8>)
 800011c:	f443 0380 	orr.w	r3, r3, #4194304	; 0x400000
 8000120:	6013      	str	r3, [r2, #0]
 8000122:	4b15      	ldr	r3, [pc, #84]	; (8000178 <SystemClock_Config+0xb4>)
 8000124:	681b      	ldr	r3, [r3, #0]
 8000126:	4a14      	ldr	r2, [pc, #80]	; (8000178 <SystemClock_Config+0xb4>)
 8000128:	f443 5380 	orr.w	r3, r3, #4096	; 0x1000
 800012c:	6013      	str	r3, [r2, #0]
 800012e:	4b0e      	ldr	r3, [pc, #56]	; (8000168 <SystemClock_Config+0xa4>)
 8000130:	681b      	ldr	r3, [r3, #0]
 8000132:	4a0d      	ldr	r2, [pc, #52]	; (8000168 <SystemClock_Config+0xa4>)
 8000134:	f043 7380 	orr.w	r3, r3, #16777216	; 0x1000000
 8000138:	6013      	str	r3, [r2, #0]
 800013a:	bf00      	nop
 800013c:	4b0a      	ldr	r3, [pc, #40]	; (8000168 <SystemClock_Config+0xa4>)
 800013e:	681b      	ldr	r3, [r3, #0]
 8000140:	f003 7300 	and.w	r3, r3, #33554432	; 0x2000000
 8000144:	2b00      	cmp	r3, #0
 8000146:	d0f9      	beq.n	800013c <SystemClock_Config+0x78>
 8000148:	4b0b      	ldr	r3, [pc, #44]	; (8000178 <SystemClock_Config+0xb4>)
 800014a:	681b      	ldr	r3, [r3, #0]
 800014c:	4a0a      	ldr	r2, [pc, #40]	; (8000178 <SystemClock_Config+0xb4>)
 800014e:	f043 0302 	orr.w	r3, r3, #2
 8000152:	6013      	str	r3, [r2, #0]
 8000154:	bf00      	nop
 8000156:	4b08      	ldr	r3, [pc, #32]	; (8000178 <SystemClock_Config+0xb4>)
 8000158:	681b      	ldr	r3, [r3, #0]
 800015a:	f003 0308 	and.w	r3, r3, #8
 800015e:	2b08      	cmp	r3, #8
 8000160:	d1f9      	bne.n	8000156 <SystemClock_Config+0x92>
 8000162:	bf00      	nop
 8000164:	bf00      	nop
 8000166:	4770      	bx	lr
 8000168:	40023800 	.word	0x40023800
 800016c:	40023840 	.word	0x40023840
 8000170:	40007000 	.word	0x40007000
 8000174:	40023c00 	.word	0x40023c00
 8000178:	40023808 	.word	0x40023808

0800017c <GPIO_Config>:
 800017c:	4b06      	ldr	r3, [pc, #24]	; (8000198 <GPIO_Config+0x1c>)
 800017e:	681b      	ldr	r3, [r3, #0]
 8000180:	4a05      	ldr	r2, [pc, #20]	; (8000198 <GPIO_Config+0x1c>)
 8000182:	f043 0301 	orr.w	r3, r3, #1
 8000186:	6013      	str	r3, [r2, #0]
 8000188:	4b04      	ldr	r3, [pc, #16]	; (800019c <GPIO_Config+0x20>)
 800018a:	681b      	ldr	r3, [r3, #0]
 800018c:	4a03      	ldr	r2, [pc, #12]	; (800019c <GPIO_Config+0x20>)
 800018e:	f443 6380 	orr.w	r3, r3, #1024	; 0x400
 8000192:	6013      	str	r3, [r2, #0]
 8000194:	bf00      	nop
 8000196:	4770      	bx	lr
 8000198:	40023830 	.word	0x40023830
 800019c:	40020000 	.word	0x40020000

080001a0 <Toggle_Led>:
 80001a0:	b082      	sub	sp, #8
 80001a2:	4b0a      	ldr	r3, [pc, #40]	; (80001cc <Toggle_Led+0x2c>)
 80001a4:	681b      	ldr	r3, [r3, #0]
 80001a6:	9301      	str	r3, [sp, #4]
 80001a8:	4b09      	ldr	r3, [pc, #36]	; (80001d0 <Toggle_Led+0x30>)
 80001aa:	681a      	ldr	r2, [r3, #0]
 80001ac:	9b01      	ldr	r3, [sp, #4]
 80001ae:	041b      	lsls	r3, r3, #16
 80001b0:	f403 1100 	and.w	r1, r3, #2097152	; 0x200000
 80001b4:	9b01      	ldr	r3, [sp, #4]
 80001b6:	43db      	mvns	r3, r3
 80001b8:	f003 0320 	and.w	r3, r3, #32
 80001bc:	430b      	orrs	r3, r1
 80001be:	4904      	ldr	r1, [pc, #16]	; (80001d0 <Toggle_Led+0x30>)
 80001c0:	4313      	orrs	r3, r2
 80001c2:	600b      	str	r3, [r1, #0]
 80001c4:	bf00      	nop
 80001c6:	b002      	add	sp, #8
 80001c8:	4770      	bx	lr
 80001ca:	bf00      	nop
 80001cc:	40020014 	.word	0x40020014
 80001d0:	40020018 	.word	0x40020018

080001d4 <DelayMS>:
 80001d4:	b084      	sub	sp, #16
 80001d6:	9001      	str	r0, [sp, #4]
 80001d8:	9b01      	ldr	r3, [sp, #4]
 80001da:	f44f 727a 	mov.w	r2, #1000	; 0x3e8
 80001de:	fb02 f303 	mul.w	r3, r2, r3
 80001e2:	9303      	str	r3, [sp, #12]
 80001e4:	e000      	b.n	80001e8 <DelayMS+0x14>
 80001e6:	bf00      	nop
 80001e8:	9b03      	ldr	r3, [sp, #12]
 80001ea:	1e5a      	subs	r2, r3, #1
 80001ec:	9203      	str	r2, [sp, #12]
 80001ee:	2b00      	cmp	r3, #0
 80001f0:	d1f9      	bne.n	80001e6 <DelayMS+0x12>
 80001f2:	bf00      	nop
 80001f4:	bf00      	nop
 80001f6:	b004      	add	sp, #16
 80001f8:	4770      	bx	lr
